target datalayout = "e-m:e-p270:32:32-p271:32:32-p272:64:64-i64:64-i128:128-f80:128-n8:16:32:64-S128"
target triple = "x86_64-pc-linux-gnu"

%struct.Bdc_Man_t_ = type { ptr, i32, i32, i32, i32, ptr, i32, i32, i32, ptr, ptr, i32, ptr, ptr, ptr, ptr, ptr, ptr, ptr, %struct.Bdc_Isf_t_, ptr, %struct.Bdc_Isf_t_, ptr, %struct.Bdc_Isf_t_, ptr, %struct.Bdc_Isf_t_, ptr, i32, i32, i32, i32, i32, i32, i32, i64, i64, i64, i64, i64 }
%struct.Bdc_Isf_t_ = type { i32, i32, ptr, ptr }
%struct.Bdc_Fun_t_ = type { i32, ptr, ptr, i32, ptr, ptr, %union.anon }
%union.anon = type { ptr }

; Function Attrs: inlinehint nounwind uwtable
define internal i32 @Kit_TruthWordNum(i32 noundef %0) #3 {
  %2 = alloca i32, align 4
  store i32 %0, ptr %2, align 4, !tbaa !28
  %3 = load i32, ptr %2, align 4, !tbaa !28
  %4 = icmp sle i32 %3, 5
  br i1 %4, label %5, label %6

5:                                                ; preds = %1
  br label %10

6:                                                ; preds = %1
  %7 = load i32, ptr %2, align 4, !tbaa !28
  %8 = sub nsw i32 %7, 5
  %9 = shl i32 1, %8
  br label %10

10:                                               ; preds = %6, %5
  %11 = phi i32 [ 1, %5 ], [ %9, %6 ]
  ret i32 %11
}

; Function Attrs: inlinehint nounwind uwtable
define internal void @Kit_TruthCopy(ptr noundef %0, ptr noundef %1, i32 noundef %2) #3 {
  %4 = alloca ptr, align 8
  %5 = alloca ptr, align 8
  %6 = alloca i32, align 4
  %7 = alloca i32, align 4
  store ptr %0, ptr %4, align 8, !tbaa !34
  store ptr %1, ptr %5, align 8, !tbaa !34
  store i32 %2, ptr %6, align 4, !tbaa !28
  call void @llvm.lifetime.start.p0(i64 4, ptr %7) #7
  %8 = load i32, ptr %6, align 4, !tbaa !28
  %9 = call i32 @Kit_TruthWordNum(i32 noundef %8)
  %10 = sub nsw i32 %9, 1
  store i32 %10, ptr %7, align 4, !tbaa !28
  br label %11

11:                                               ; preds = %24, %3
  %12 = load i32, ptr %7, align 4, !tbaa !28
  %13 = icmp sge i32 %12, 0
  br i1 %13, label %14, label %27

14:                                               ; preds = %11
  %15 = load ptr, ptr %5, align 8, !tbaa !34
  %16 = load i32, ptr %7, align 4, !tbaa !28
  %17 = sext i32 %16 to i64
  %18 = getelementptr inbounds i32, ptr %15, i64 %17
  %19 = load i32, ptr %18, align 4, !tbaa !28
  %20 = load ptr, ptr %4, align 8, !tbaa !34
  %21 = load i32, ptr %7, align 4, !tbaa !28
  %22 = sext i32 %21 to i64
  %23 = getelementptr inbounds i32, ptr %20, i64 %22
  store i32 %19, ptr %23, align 4, !tbaa !28
  br label %24

24:                                               ; preds = %14
  %25 = load i32, ptr %7, align 4, !tbaa !28
  %26 = add nsw i32 %25, -1
  store i32 %26, ptr %7, align 4, !tbaa !28
  br label %11, !llvm.loop !36

27:                                               ; preds = %11
  call void @llvm.lifetime.end.p0(i64 4, ptr %7) #7
  ret void
}

; Function Attrs: inlinehint nounwind uwtable
define internal void @Kit_TruthNot(ptr noundef %0, ptr noundef %1, i32 noundef %2) #3 {
  %4 = alloca ptr, align 8
  %5 = alloca ptr, align 8
  %6 = alloca i32, align 4
  %7 = alloca i32, align 4
  store ptr %0, ptr %4, align 8, !tbaa !34
  store ptr %1, ptr %5, align 8, !tbaa !34
  store i32 %2, ptr %6, align 4, !tbaa !28
  call void @llvm.lifetime.start.p0(i64 4, ptr %7) #7
  %8 = load i32, ptr %6, align 4, !tbaa !28
  %9 = call i32 @Kit_TruthWordNum(i32 noundef %8)
  %10 = sub nsw i32 %9, 1
  store i32 %10, ptr %7, align 4, !tbaa !28
  br label %11

11:                                               ; preds = %25, %3
  %12 = load i32, ptr %7, align 4, !tbaa !28
  %13 = icmp sge i32 %12, 0
  br i1 %13, label %14, label %28

14:                                               ; preds = %11
  %15 = load ptr, ptr %5, align 8, !tbaa !34
  %16 = load i32, ptr %7, align 4, !tbaa !28
  %17 = sext i32 %16 to i64
  %18 = getelementptr inbounds i32, ptr %15, i64 %17
  %19 = load i32, ptr %18, align 4, !tbaa !28
  %20 = xor i32 %19, -1
  %21 = load ptr, ptr %4, align 8, !tbaa !34
  %22 = load i32, ptr %7, align 4, !tbaa !28
  %23 = sext i32 %22 to i64
  %24 = getelementptr inbounds i32, ptr %21, i64 %23
  store i32 %20, ptr %24, align 4, !tbaa !28
  br label %25

25:                                               ; preds = %14
  %26 = load i32, ptr %7, align 4, !tbaa !28
  %27 = add nsw i32 %26, -1
  store i32 %27, ptr %7, align 4, !tbaa !28
  br label %11, !llvm.loop !42

28:                                               ; preds = %11
  call void @llvm.lifetime.end.p0(i64 4, ptr %7) #7
  ret void
}

; Function Attrs: inlinehint nounwind uwtable
define internal ptr @Bdc_Regular(ptr noundef %0) #3 {
  %2 = alloca ptr, align 8
  store ptr %0, ptr %2, align 8, !tbaa !38
  %3 = load ptr, ptr %2, align 8, !tbaa !38
  %4 = ptrtoint ptr %3 to i64
  %5 = and i64 %4, -2
  %6 = inttoptr i64 %5 to ptr
  ret ptr %6
}

; Function Attrs: inlinehint nounwind uwtable
define internal i32 @Bdc_IsComplement(ptr noundef %0) #3 {
  %2 = alloca ptr, align 8
  store ptr %0, ptr %2, align 8, !tbaa !38
  %3 = load ptr, ptr %2, align 8, !tbaa !38
  %4 = ptrtoint ptr %3 to i64
  %5 = and i64 %4, 1
  %6 = trunc i64 %5 to i32
  ret i32 %6
}

; Function Attrs: nounwind uwtable
define i32 @Bdc_ManNodeVerify(ptr noundef %0, ptr noundef %1, ptr noundef %2) #0 {
  %4 = alloca ptr, align 8
  %5 = alloca ptr, align 8
  %6 = alloca ptr, align 8
  %7 = alloca ptr, align 8
  store ptr %0, ptr %4, align 8, !tbaa !3
  store ptr %1, ptr %5, align 8, !tbaa !8
  store ptr %2, ptr %6, align 8, !tbaa !38
  call void @llvm.lifetime.start.p0(i64 8, ptr %7) #7
  %8 = load ptr, ptr %4, align 8, !tbaa !3
  %9 = getelementptr inbounds nuw %struct.Bdc_Man_t_, ptr %8, i32 0, i32 14
  %10 = load ptr, ptr %9, align 8, !tbaa !29
  store ptr %10, ptr %7, align 8, !tbaa !34
  %11 = load ptr, ptr %6, align 8, !tbaa !38
  %12 = call i32 @Bdc_IsComplement(ptr noundef %11)
  %13 = icmp ne i32 %12, 0
  br i1 %13, label %14, label %23

14:                                               ; preds = %3
  %15 = load ptr, ptr %7, align 8, !tbaa !34
  %16 = load ptr, ptr %6, align 8, !tbaa !38
  %17 = call ptr @Bdc_Regular(ptr noundef %16)
  %18 = getelementptr inbounds nuw %struct.Bdc_Fun_t_, ptr %17, i32 0, i32 4
  %19 = load ptr, ptr %18, align 8, !tbaa !39
  %20 = load ptr, ptr %4, align 8, !tbaa !3
  %21 = getelementptr inbounds nuw %struct.Bdc_Man_t_, ptr %20, i32 0, i32 1
  %22 = load i32, ptr %21, align 8, !tbaa !25
  call void @Kit_TruthNot(ptr noundef %15, ptr noundef %19, i32 noundef %22)
  br label %31

23:                                               ; preds = %3
  %24 = load ptr, ptr %7, align 8, !tbaa !34
  %25 = load ptr, ptr %6, align 8, !tbaa !38
  %26 = getelementptr inbounds nuw %struct.Bdc_Fun_t_, ptr %25, i32 0, i32 4
  %27 = load ptr, ptr %26, align 8, !tbaa !39
  %28 = load ptr, ptr %4, align 8, !tbaa !3
  %29 = getelementptr inbounds nuw %struct.Bdc_Man_t_, ptr %28, i32 0, i32 1
  %30 = load i32, ptr %29, align 8, !tbaa !25
  call void @Kit_TruthCopy(ptr noundef %24, ptr noundef %27, i32 noundef %30)
  br label %31

31:                                               ; preds = %23, %14
  %32 = load ptr, ptr %4, align 8, !tbaa !3
  %33 = load ptr, ptr %5, align 8, !tbaa !8
  %34 = load ptr, ptr %7, align 8, !tbaa !34
  %35 = call i32 @Bdc_TableCheckContainment(ptr noundef %32, ptr noundef %33, ptr noundef %34)
  call void @llvm.lifetime.end.p0(i64 8, ptr %7) #7
  ret i32 %35
}