; Function Attrs: nounwind uwtable
define i32 @Bdc_ManNodeVerify(ptr noundef %0, ptr noundef %1, ptr noundef %2) local_unnamed_addr #0 {
  %4 = getelementptr inbounds nuw i8, ptr %0, i64 88
  %5 = load ptr, ptr %4, align 8, !tbaa !27
  %6 = ptrtoint ptr %2 to i64
  %7 = and i64 %6, 1
  %.not = icmp eq i64 %7, 0
  br i1 %.not, label %25, label %8

8:                                                ; preds = %3
  %9 = and i64 %6, -2
  %10 = inttoptr i64 %9 to ptr
  %11 = getelementptr inbounds nuw i8, ptr %10, i64 32
  %12 = load ptr, ptr %11, align 8, !tbaa !36
  %13 = getelementptr inbounds nuw i8, ptr %0, i64 8
  %14 = load i32, ptr %13, align 8, !tbaa !24
  %15 = icmp slt i32 %14, 6
  %16 = add nsw i32 %14, -5
  %17 = shl nuw i32 1, %16
  %spec.select.i = select i1 %15, i32 1, i32 %17
  %18 = icmp sgt i32 %spec.select.i, 0
  br i1 %18, label %select.unfold.preheader.i, label %Kit_TruthNot.exit

select.unfold.preheader.i:                        ; preds = %8
  %19 = zext nneg i32 %spec.select.i to i64
  br label %select.unfold.i

select.unfold.i:                                  ; preds = %select.unfold.i, %select.unfold.preheader.i
  %indvars.iv.i = phi i64 [ %19, %select.unfold.preheader.i ], [ %indvars.iv.next.i, %select.unfold.i ]
  %indvars.iv.next.i = add nsw i64 %indvars.iv.i, -1
  %20 = getelementptr inbounds nuw i32, ptr %12, i64 %indvars.iv.next.i
  %21 = load i32, ptr %20, align 4, !tbaa !29
  %22 = xor i32 %21, -1
  %23 = getelementptr inbounds nuw i32, ptr %5, i64 %indvars.iv.next.i
  store i32 %22, ptr %23, align 4, !tbaa !29
  %24 = icmp samesign ugt i64 %indvars.iv.i, 1
  br i1 %24, label %select.unfold.i, label %Kit_TruthNot.exit, !llvm.loop !38

25:                                               ; preds = %3
  %26 = getelementptr inbounds nuw i8, ptr %2, i64 32
  %27 = load ptr, ptr %26, align 8, !tbaa !36
  %28 = getelementptr inbounds nuw i8, ptr %0, i64 8
  %29 = load i32, ptr %28, align 8, !tbaa !24
  %30 = icmp slt i32 %29, 6
  %31 = add nsw i32 %29, -5
  %32 = shl nuw i32 1, %31
  %spec.select.i11 = select i1 %30, i32 1, i32 %32
  %33 = icmp sgt i32 %spec.select.i11, 0
  br i1 %33, label %select.unfold.preheader.i12, label %Kit_TruthNot.exit

select.unfold.preheader.i12:                      ; preds = %25
  %34 = zext nneg i32 %spec.select.i11 to i64
  br label %select.unfold.i13

select.unfold.i13:                                ; preds = %select.unfold.i13, %select.unfold.preheader.i12
  %indvars.iv.i14 = phi i64 [ %34, %select.unfold.preheader.i12 ], [ %indvars.iv.next.i15, %select.unfold.i13 ]
  %indvars.iv.next.i15 = add nsw i64 %indvars.iv.i14, -1
  %35 = getelementptr inbounds nuw i32, ptr %27, i64 %indvars.iv.next.i15
  %36 = load i32, ptr %35, align 4, !tbaa !29
  %37 = getelementptr inbounds nuw i32, ptr %5, i64 %indvars.iv.next.i15
  store i32 %36, ptr %37, align 4, !tbaa !29
  %38 = icmp samesign ugt i64 %indvars.iv.i14, 1
  br i1 %38, label %select.unfold.i13, label %Kit_TruthNot.exit, !llvm.loop !32

Kit_TruthNot.exit:                                ; preds = %select.unfold.i, %select.unfold.i13, %25, %8
  %39 = tail call i32 @Bdc_TableCheckContainment(ptr noundef %0, ptr noundef %1, ptr noundef %5) #7
  ret i32 %39
}